; Function Attrs: nounwind uwtable
define internal range(i32 0, 2) i32 @ossl_aes_gcm_siv_stream_final(ptr noundef %0, ptr noundef %1, ptr noundef writeonly captures(address_is_null) %2, i64 %3) #0 {
  %5 = tail call i32 @ossl_prov_is_running() #5
  %.not = icmp eq i32 %5, 0
  br i1 %.not, label %17, label %6

6:                                                ; preds = %4
  %7 = getelementptr inbounds nuw i8, ptr %0, i64 8
  %8 = load ptr, ptr %7, align 8, !tbaa !15
  %9 = getelementptr inbounds nuw i8, ptr %8, i64 8
  %10 = load ptr, ptr %9, align 8, !tbaa !24
  %11 = tail call i32 %10(ptr noundef %0, ptr noundef %1, ptr noundef null, i64 noundef 0) #5
  %12 = icmp ne i32 %11, 0
  %13 = icmp ne ptr %2, null
  %or.cond.not = select i1 %13, i1 %12, i1 false
  br i1 %or.cond.not, label %14, label %15

14:                                               ; preds = %6
  store i64 0, ptr %2, align 8, !tbaa !25
  br label %15

15:                                               ; preds = %14, %6
  %16 = zext i1 %12 to i32
  br label %17

17:                                               ; preds = %4, %15
  %.0 = phi i32 [ %16, %15 ], [ 0, %4 ]
  ret i32 %.0
}